target datalayout = "e-m:e-p270:32:32-p271:32:32-p272:64:64-i64:64-i128:128-f80:128-n8:16:32:64-S128"
target triple = "x86_64-pc-linux-gnu"

%struct.poly_st = type { [256 x i32] }
%struct.PACKET = type { ptr, i64 }

; Function Attrs: inlinehint nounwind uwtable
define internal i32 @constant_time_msb_32(i32 noundef %0) #3 {
  %2 = alloca i32, align 4
  store i32 %0, ptr %2, align 4, !tbaa !8
  %3 = load i32, ptr %2, align 4, !tbaa !8
  %4 = lshr i32 %3, 31
  %5 = sub i32 0, %4
  ret i32 %5
}

; Function Attrs: inlinehint nounwind uwtable
define internal i32 @constant_time_select_32(i32 noundef %0, i32 noundef %1, i32 noundef %2) #3 {
  %4 = alloca i32, align 4
  %5 = alloca i32, align 4
  %6 = alloca i32, align 4
  store i32 %0, ptr %4, align 4, !tbaa !8
  store i32 %1, ptr %5, align 4, !tbaa !8
  store i32 %2, ptr %6, align 4, !tbaa !8
  %7 = load i32, ptr %4, align 4, !tbaa !8
  %8 = call i32 @value_barrier_32(i32 noundef %7)
  %9 = load i32, ptr %5, align 4, !tbaa !8
  %10 = and i32 %8, %9
  %11 = load i32, ptr %4, align 4, !tbaa !8
  %12 = xor i32 %11, -1
  %13 = call i32 @value_barrier_32(i32 noundef %12)
  %14 = load i32, ptr %6, align 4, !tbaa !8
  %15 = and i32 %13, %14
  %16 = or i32 %10, %15
  ret i32 %16
}

; Function Attrs: inlinehint nounwind uwtable
define internal i32 @constant_time_lt_32(i32 noundef %0, i32 noundef %1) #3 {
  %3 = alloca i32, align 4
  %4 = alloca i32, align 4
  store i32 %0, ptr %3, align 4, !tbaa !8
  store i32 %1, ptr %4, align 4, !tbaa !8
  %5 = load i32, ptr %3, align 4, !tbaa !8
  %6 = load i32, ptr %3, align 4, !tbaa !8
  %7 = load i32, ptr %4, align 4, !tbaa !8
  %8 = xor i32 %6, %7
  %9 = load i32, ptr %3, align 4, !tbaa !8
  %10 = load i32, ptr %4, align 4, !tbaa !8
  %11 = sub i32 %9, %10
  %12 = load i32, ptr %4, align 4, !tbaa !8
  %13 = xor i32 %11, %12
  %14 = or i32 %8, %13
  %15 = xor i32 %5, %14
  %16 = call i32 @constant_time_msb_32(i32 noundef %15)
  ret i32 %16
}

; Function Attrs: inlinehint nounwind uwtable
define internal i64 @PACKET_remaining(ptr noundef %0) #3 {
  %2 = alloca ptr, align 8
  store ptr %0, ptr %2, align 8, !tbaa !40
  %3 = load ptr, ptr %2, align 8, !tbaa !40
  %4 = getelementptr inbounds nuw %struct.PACKET, ptr %3, i32 0, i32 1
  %5 = load i64, ptr %4, align 8, !tbaa !43
  ret i64 %5
}

; Function Attrs: inlinehint nounwind uwtable
define internal i32 @reduce_once(i32 noundef %0) #3 {
  %2 = alloca i32, align 4
  store i32 %0, ptr %2, align 4, !tbaa !8
  %3 = load i32, ptr %2, align 4, !tbaa !8
  %4 = call i32 @constant_time_lt_32(i32 noundef %3, i32 noundef 8380417)
  %5 = load i32, ptr %2, align 4, !tbaa !8
  %6 = load i32, ptr %2, align 4, !tbaa !8
  %7 = sub i32 %6, 8380417
  %8 = call i32 @constant_time_select_32(i32 noundef %4, i32 noundef %5, i32 noundef %7)
  ret i32 %8
}

; Function Attrs: inlinehint nounwind uwtable
define internal i32 @__uint32_identity(i32 noundef %0) #3 {
  %2 = alloca i32, align 4
  store i32 %0, ptr %2, align 4, !tbaa !8
  %3 = load i32, ptr %2, align 4, !tbaa !8
  ret i32 %3
}

; Function Attrs: inlinehint nounwind uwtable
define internal void @packet_forward(ptr noundef %0, i64 noundef %1) #3 {
  %3 = alloca ptr, align 8
  %4 = alloca i64, align 8
  store ptr %0, ptr %3, align 8, !tbaa !40
  store i64 %1, ptr %4, align 8, !tbaa !10
  %5 = load i64, ptr %4, align 8, !tbaa !10
  %6 = load ptr, ptr %3, align 8, !tbaa !40
  %7 = getelementptr inbounds nuw %struct.PACKET, ptr %6, i32 0, i32 0
  %8 = load ptr, ptr %7, align 8, !tbaa !41
  %9 = getelementptr inbounds nuw i8, ptr %8, i64 %5
  store ptr %9, ptr %7, align 8, !tbaa !41
  %10 = load i64, ptr %4, align 8, !tbaa !10
  %11 = load ptr, ptr %3, align 8, !tbaa !40
  %12 = getelementptr inbounds nuw %struct.PACKET, ptr %11, i32 0, i32 1
  %13 = load i64, ptr %12, align 8, !tbaa !43
  %14 = sub i64 %13, %10
  store i64 %14, ptr %12, align 8, !tbaa !43
  ret void
}

; Function Attrs: inlinehint nounwind uwtable
define internal i32 @PACKET_peek_bytes(ptr noundef %0, ptr noundef %1, i64 noundef %2) #3 {
  %4 = alloca i32, align 4
  %5 = alloca ptr, align 8
  %6 = alloca ptr, align 8
  %7 = alloca i64, align 8
  store ptr %0, ptr %5, align 8, !tbaa !40
  store ptr %1, ptr %6, align 8, !tbaa !97
  store i64 %2, ptr %7, align 8, !tbaa !10
  %8 = load ptr, ptr %5, align 8, !tbaa !40
  %9 = call i64 @PACKET_remaining(ptr noundef %8)
  %10 = load i64, ptr %7, align 8, !tbaa !10
  %11 = icmp ult i64 %9, %10
  br i1 %11, label %12, label %13

12:                                               ; preds = %3
  store i32 0, ptr %4, align 4
  br label %18

13:                                               ; preds = %3
  %14 = load ptr, ptr %5, align 8, !tbaa !40
  %15 = getelementptr inbounds nuw %struct.PACKET, ptr %14, i32 0, i32 0
  %16 = load ptr, ptr %15, align 8, !tbaa !41
  %17 = load ptr, ptr %6, align 8, !tbaa !97
  store ptr %16, ptr %17, align 8, !tbaa !25
  store i32 1, ptr %4, align 4
  br label %18

18:                                               ; preds = %13, %12
  %19 = load i32, ptr %4, align 4
  ret i32 %19
}

; Function Attrs: inlinehint nounwind uwtable
define internal i32 @mod_sub(i32 noundef %0, i32 noundef %1) #3 {
  %3 = alloca i32, align 4
  %4 = alloca i32, align 4
  store i32 %0, ptr %3, align 4, !tbaa !8
  store i32 %1, ptr %4, align 4, !tbaa !8
  %5 = load i32, ptr %3, align 4, !tbaa !8
  %6 = add i32 8380417, %5
  %7 = load i32, ptr %4, align 4, !tbaa !8
  %8 = sub i32 %6, %7
  %9 = call i32 @reduce_once(i32 noundef %8)
  ret i32 %9
}

; Function Attrs: inlinehint nounwind uwtable
define internal i32 @value_barrier_32(i32 noundef %0) #3 {
  %2 = alloca i32, align 4
  %3 = alloca i32, align 4
  store i32 %0, ptr %2, align 4, !tbaa !8
  call void @llvm.lifetime.start.p0(i64 4, ptr %3) #7
  %4 = load i32, ptr %2, align 4, !tbaa !8
  %5 = call i32 asm "", "=r,0,~{dirflag},~{fpsr},~{flags}"(i32 %4) #9, !srcloc !99
  store i32 %5, ptr %3, align 4, !tbaa !8
  %6 = load i32, ptr %3, align 4, !tbaa !8
  call void @llvm.lifetime.end.p0(i64 4, ptr %3) #7
  ret i32 %6
}

; Function Attrs: inlinehint nounwind uwtable
define internal ptr @OPENSSL_load_u32_le(ptr noundef %0, ptr noundef %1) #3 {
  %3 = alloca ptr, align 8
  %4 = alloca ptr, align 8
  %5 = alloca i32, align 4
  store ptr %0, ptr %3, align 8, !tbaa !31
  store ptr %1, ptr %4, align 8, !tbaa !25
  call void @llvm.lifetime.start.p0(i64 4, ptr %5) #7
  %6 = load ptr, ptr %4, align 8, !tbaa !25
  call void @llvm.memcpy.p0.p0.i64(ptr align 4 %5, ptr align 1 %6, i64 4, i1 false)
  %7 = load i32, ptr %5, align 4, !tbaa !8
  %8 = call i32 @__uint32_identity(i32 noundef %7)
  %9 = load ptr, ptr %3, align 8, !tbaa !31
  store i32 %8, ptr %9, align 4, !tbaa !8
  %10 = load ptr, ptr %4, align 8, !tbaa !25
  %11 = getelementptr inbounds i8, ptr %10, i64 4
  call void @llvm.lifetime.end.p0(i64 4, ptr %5) #7
  ret ptr %11
}

; Function Attrs: inlinehint nounwind uwtable
define internal i32 @PACKET_get_bytes(ptr noundef %0, ptr noundef %1, i64 noundef %2) #3 {
  %4 = alloca i32, align 4
  %5 = alloca ptr, align 8
  %6 = alloca ptr, align 8
  %7 = alloca i64, align 8
  store ptr %0, ptr %5, align 8, !tbaa !40
  store ptr %1, ptr %6, align 8, !tbaa !97
  store i64 %2, ptr %7, align 8, !tbaa !10
  %8 = load ptr, ptr %5, align 8, !tbaa !40
  %9 = load ptr, ptr %6, align 8, !tbaa !97
  %10 = load i64, ptr %7, align 8, !tbaa !10
  %11 = call i32 @PACKET_peek_bytes(ptr noundef %8, ptr noundef %9, i64 noundef %10)
  %12 = icmp ne i32 %11, 0
  br i1 %12, label %14, label %13

13:                                               ; preds = %3
  store i32 0, ptr %4, align 4
  br label %17

14:                                               ; preds = %3
  %15 = load ptr, ptr %5, align 8, !tbaa !40
  %16 = load i64, ptr %7, align 8, !tbaa !10
  call void @packet_forward(ptr noundef %15, i64 noundef %16)
  store i32 1, ptr %4, align 4
  br label %17

17:                                               ; preds = %14, %13
  %18 = load i32, ptr %4, align 4
  ret i32 %18
}

; Function Attrs: nounwind uwtable
define internal i32 @poly_decode_signed_2(ptr noundef %0, ptr noundef %1) #0 {
  %3 = alloca ptr, align 8
  %4 = alloca ptr, align 8
  %5 = alloca i32, align 4
  %6 = alloca i32, align 4
  %7 = alloca i32, align 4
  %8 = alloca i32, align 4
  %9 = alloca ptr, align 8
  %10 = alloca i32, align 4
  %11 = alloca i32, align 4
  %12 = alloca ptr, align 8
  store ptr %0, ptr %3, align 8, !tbaa !20
  store ptr %1, ptr %4, align 8, !tbaa !40
  call void @llvm.lifetime.start.p0(i64 4, ptr %5) #7
  call void @llvm.lifetime.start.p0(i64 4, ptr %6) #7
  store i32 0, ptr %6, align 4, !tbaa !8
  call void @llvm.lifetime.start.p0(i64 4, ptr %7) #7
  store i32 0, ptr %7, align 4, !tbaa !8
  call void @llvm.lifetime.start.p0(i64 4, ptr %8) #7
  store i32 0, ptr %8, align 4, !tbaa !8
  call void @llvm.lifetime.start.p0(i64 8, ptr %9) #7
  %13 = load ptr, ptr %3, align 8, !tbaa !20
  %14 = getelementptr inbounds nuw %struct.poly_st, ptr %13, i32 0, i32 0
  %15 = getelementptr inbounds [256 x i32], ptr %14, i64 0, i64 0
  store ptr %15, ptr %9, align 8, !tbaa !31
  call void @llvm.lifetime.start.p0(i64 4, ptr %10) #7
  call void @llvm.lifetime.start.p0(i64 4, ptr %11) #7
  call void @llvm.lifetime.start.p0(i64 8, ptr %12) #7
  store i32 0, ptr %5, align 4, !tbaa !8
  br label %16

16:                                               ; preds = %90, %2
  %17 = load i32, ptr %5, align 4, !tbaa !8
  %18 = icmp slt i32 %17, 32
  br i1 %18, label %19, label %93

19:                                               ; preds = %16
  %20 = load ptr, ptr %4, align 8, !tbaa !40
  %21 = call i32 @PACKET_get_bytes(ptr noundef %20, ptr noundef %12, i64 noundef 3)
  %22 = icmp ne i32 %21, 0
  br i1 %22, label %24, label %23

23:                                               ; preds = %19
  br label %94

24:                                               ; preds = %19
  %25 = load ptr, ptr %12, align 8, !tbaa !25
  call void @llvm.memcpy.p0.p0.i64(ptr align 4 %7, ptr align 1 %25, i64 3, i1 false)
  %26 = call ptr @OPENSSL_load_u32_le(ptr noundef %8, ptr noundef %7)
  %27 = load i32, ptr %8, align 4, !tbaa !8
  %28 = and i32 %27, 9586980
  store i32 %28, ptr %10, align 4, !tbaa !8
  %29 = load i32, ptr %10, align 4, !tbaa !8
  %30 = lshr i32 %29, 1
  %31 = load i32, ptr %10, align 4, !tbaa !8
  %32 = lshr i32 %31, 2
  %33 = or i32 %30, %32
  store i32 %33, ptr %11, align 4, !tbaa !8
  %34 = load i32, ptr %11, align 4, !tbaa !8
  %35 = load i32, ptr %8, align 4, !tbaa !8
  %36 = and i32 %34, %35
  %37 = icmp ne i32 %36, 0
  %38 = zext i1 %37 to i32
  %39 = call i32 @value_barrier_32(i32 noundef %38)
  %40 = icmp ne i32 %39, 0
  br i1 %40, label %41, label %42

41:                                               ; preds = %24
  br label %94

42:                                               ; preds = %24
  %43 = load i32, ptr %8, align 4, !tbaa !8
  %44 = and i32 %43, 7
  %45 = call i32 @mod_sub(i32 noundef 2, i32 noundef %44)
  %46 = load ptr, ptr %9, align 8, !tbaa !31
  %47 = getelementptr inbounds nuw i32, ptr %46, i32 1
  store ptr %47, ptr %9, align 8, !tbaa !31
  store i32 %45, ptr %46, align 4, !tbaa !8
  %48 = load i32, ptr %8, align 4, !tbaa !8
  %49 = lshr i32 %48, 3
  %50 = and i32 %49, 7
  %51 = call i32 @mod_sub(i32 noundef 2, i32 noundef %50)
  %52 = load ptr, ptr %9, align 8, !tbaa !31
  %53 = getelementptr inbounds nuw i32, ptr %52, i32 1
  store ptr %53, ptr %9, align 8, !tbaa !31
  store i32 %51, ptr %52, align 4, !tbaa !8
  %54 = load i32, ptr %8, align 4, !tbaa !8
  %55 = lshr i32 %54, 6
  %56 = and i32 %55, 7
  %57 = call i32 @mod_sub(i32 noundef 2, i32 noundef %56)
  %58 = load ptr, ptr %9, align 8, !tbaa !31
  %59 = getelementptr inbounds nuw i32, ptr %58, i32 1
  store ptr %59, ptr %9, align 8, !tbaa !31
  store i32 %57, ptr %58, align 4, !tbaa !8
  %60 = load i32, ptr %8, align 4, !tbaa !8
  %61 = lshr i32 %60, 9
  %62 = and i32 %61, 7
  %63 = call i32 @mod_sub(i32 noundef 2, i32 noundef %62)
  %64 = load ptr, ptr %9, align 8, !tbaa !31
  %65 = getelementptr inbounds nuw i32, ptr %64, i32 1
  store ptr %65, ptr %9, align 8, !tbaa !31
  store i32 %63, ptr %64, align 4, !tbaa !8
  %66 = load i32, ptr %8, align 4, !tbaa !8
  %67 = lshr i32 %66, 12
  %68 = and i32 %67, 7
  %69 = call i32 @mod_sub(i32 noundef 2, i32 noundef %68)
  %70 = load ptr, ptr %9, align 8, !tbaa !31
  %71 = getelementptr inbounds nuw i32, ptr %70, i32 1
  store ptr %71, ptr %9, align 8, !tbaa !31
  store i32 %69, ptr %70, align 4, !tbaa !8
  %72 = load i32, ptr %8, align 4, !tbaa !8
  %73 = lshr i32 %72, 15
  %74 = and i32 %73, 7
  %75 = call i32 @mod_sub(i32 noundef 2, i32 noundef %74)
  %76 = load ptr, ptr %9, align 8, !tbaa !31
  %77 = getelementptr inbounds nuw i32, ptr %76, i32 1
  store ptr %77, ptr %9, align 8, !tbaa !31
  store i32 %75, ptr %76, align 4, !tbaa !8
  %78 = load i32, ptr %8, align 4, !tbaa !8
  %79 = lshr i32 %78, 18
  %80 = and i32 %79, 7
  %81 = call i32 @mod_sub(i32 noundef 2, i32 noundef %80)
  %82 = load ptr, ptr %9, align 8, !tbaa !31
  %83 = getelementptr inbounds nuw i32, ptr %82, i32 1
  store ptr %83, ptr %9, align 8, !tbaa !31
  store i32 %81, ptr %82, align 4, !tbaa !8
  %84 = load i32, ptr %8, align 4, !tbaa !8
  %85 = lshr i32 %84, 21
  %86 = and i32 %85, 7
  %87 = call i32 @mod_sub(i32 noundef 2, i32 noundef %86)
  %88 = load ptr, ptr %9, align 8, !tbaa !31
  %89 = getelementptr inbounds nuw i32, ptr %88, i32 1
  store ptr %89, ptr %9, align 8, !tbaa !31
  store i32 %87, ptr %88, align 4, !tbaa !8
  br label %90

90:                                               ; preds = %42
  %91 = load i32, ptr %5, align 4, !tbaa !8
  %92 = add nsw i32 %91, 1
  store i32 %92, ptr %5, align 4, !tbaa !8
  br label %16, !llvm.loop !65

93:                                               ; preds = %16
  store i32 1, ptr %6, align 4, !tbaa !8
  br label %94

94:                                               ; preds = %93, %41, %23
  %95 = load i32, ptr %6, align 4, !tbaa !8
  call void @llvm.lifetime.end.p0(i64 8, ptr %12) #7
  call void @llvm.lifetime.end.p0(i64 4, ptr %11) #7
  call void @llvm.lifetime.end.p0(i64 4, ptr %10) #7
  call void @llvm.lifetime.end.p0(i64 8, ptr %9) #7
  call void @llvm.lifetime.end.p0(i64 4, ptr %8) #7
  call void @llvm.lifetime.end.p0(i64 4, ptr %7) #7
  call void @llvm.lifetime.end.p0(i64 4, ptr %6) #7
  call void @llvm.lifetime.end.p0(i64 4, ptr %5) #7
  ret i32 %95
}