; Function Attrs: nounwind memory(read, argmem: readwrite, inaccessiblemem: none) uwtable
define internal range(i32 0, 2) i32 @poly_decode_signed_2(ptr noundef writeonly captures(none) %0, ptr noundef captures(none) %1) unnamed_addr #4 {
  %3 = getelementptr i8, ptr %1, i64 8
  %.promoted = load i64, ptr %3, align 8, !tbaa !50
  br label %4

4:                                                ; preds = %2, %19
  %5 = phi i64 [ %.promoted, %2 ], [ %10, %19 ]
  %.041 = phi i32 [ 0, %2 ], [ %106, %19 ]
  %.01640 = phi ptr [ %0, %2 ], [ %105, %19 ]
  %6 = icmp ult i64 %5, 3
  br i1 %6, label %PACKET_get_bytes.exit.thread, label %7

7:                                                ; preds = %4
  %8 = load ptr, ptr %1, align 8, !tbaa !48
  %9 = getelementptr inbounds nuw i8, ptr %8, i64 3
  store ptr %9, ptr %1, align 8, !tbaa !48
  %10 = add i64 %5, -3
  store i64 %10, ptr %3, align 8, !tbaa !50
  %.0.copyload = load i24, ptr %8, align 1
  %.0.insert.ext = zext i24 %.0.copyload to i32
  %11 = and i32 %.0.insert.ext, 9586980
  %12 = lshr exact i32 %11, 1
  %13 = lshr exact i32 %11, 2
  %14 = or disjoint i32 %12, %13
  %15 = and i32 %14, %.0.insert.ext
  %16 = icmp ne i32 %15, 0
  %17 = zext i1 %16 to i32
  %18 = tail call i32 asm "", "=r,0,~{dirflag},~{fpsr},~{flags}"(i32 range(i32 -1, 2) %17) #10, !srcloc !42
  %.not17 = icmp eq i32 %18, 0
  br i1 %.not17, label %19, label %PACKET_get_bytes.exit.thread

19:                                               ; preds = %7
  %20 = and i32 %.0.insert.ext, 7
  %21 = sub nuw nsw i32 8380419, %20
  %22 = sub nsw i32 2, %20
  %.neg.i.i.i.i = ashr i32 %22, 31
  %23 = tail call i32 asm "", "=r,0,~{dirflag},~{fpsr},~{flags}"(i32 range(i32 -1, 1) %.neg.i.i.i.i) #10, !srcloc !42
  %24 = and i32 %23, %21
  %25 = xor i32 %.neg.i.i.i.i, -1
  %26 = tail call i32 asm "", "=r,0,~{dirflag},~{fpsr},~{flags}"(i32 range(i32 -1, 2) %25) #10, !srcloc !42
  %27 = and i32 %26, %22
  %28 = or i32 %27, %24
  %29 = getelementptr inbounds nuw i8, ptr %.01640, i64 4
  store i32 %28, ptr %.01640, align 4, !tbaa !21
  %30 = lshr i32 %.0.insert.ext, 3
  %31 = and i32 %30, 7
  %32 = sub nuw nsw i32 8380419, %31
  %33 = sub nsw i32 2, %31
  %.neg.i.i.i.i18 = ashr i32 %33, 31
  %34 = tail call i32 asm "", "=r,0,~{dirflag},~{fpsr},~{flags}"(i32 range(i32 -1, 1) %.neg.i.i.i.i18) #10, !srcloc !42
  %35 = and i32 %34, %32
  %36 = xor i32 %.neg.i.i.i.i18, -1
  %37 = tail call i32 asm "", "=r,0,~{dirflag},~{fpsr},~{flags}"(i32 range(i32 -1, 2) %36) #10, !srcloc !42
  %38 = and i32 %37, %33
  %39 = or i32 %38, %35
  %40 = getelementptr inbounds nuw i8, ptr %.01640, i64 8
  store i32 %39, ptr %29, align 4, !tbaa !21
  %41 = lshr i32 %.0.insert.ext, 6
  %42 = and i32 %41, 7
  %43 = sub nuw nsw i32 8380419, %42
  %44 = sub nsw i32 2, %42
  %.neg.i.i.i.i19 = ashr i32 %44, 31
  %45 = tail call i32 asm "", "=r,0,~{dirflag},~{fpsr},~{flags}"(i32 range(i32 -1, 1) %.neg.i.i.i.i19) #10, !srcloc !42
  %46 = and i32 %45, %43
  %47 = xor i32 %.neg.i.i.i.i19, -1
  %48 = tail call i32 asm "", "=r,0,~{dirflag},~{fpsr},~{flags}"(i32 range(i32 -1, 2) %47) #10, !srcloc !42
  %49 = and i32 %48, %44
  %50 = or i32 %49, %46
  %51 = getelementptr inbounds nuw i8, ptr %.01640, i64 12
  store i32 %50, ptr %40, align 4, !tbaa !21
  %52 = lshr i32 %.0.insert.ext, 9
  %53 = and i32 %52, 7
  %54 = sub nuw nsw i32 8380419, %53
  %55 = sub nsw i32 2, %53
  %.neg.i.i.i.i20 = ashr i32 %55, 31
  %56 = tail call i32 asm "", "=r,0,~{dirflag},~{fpsr},~{flags}"(i32 range(i32 -1, 1) %.neg.i.i.i.i20) #10, !srcloc !42
  %57 = and i32 %56, %54
  %58 = xor i32 %.neg.i.i.i.i20, -1
  %59 = tail call i32 asm "", "=r,0,~{dirflag},~{fpsr},~{flags}"(i32 range(i32 -1, 2) %58) #10, !srcloc !42
  %60 = and i32 %59, %55
  %61 = or i32 %60, %57
  %62 = getelementptr inbounds nuw i8, ptr %.01640, i64 16
  store i32 %61, ptr %51, align 4, !tbaa !21
  %63 = lshr i32 %.0.insert.ext, 12
  %64 = and i32 %63, 7
  %65 = sub nuw nsw i32 8380419, %64
  %66 = sub nsw i32 2, %64
  %.neg.i.i.i.i21 = ashr i32 %66, 31
  %67 = tail call i32 asm "", "=r,0,~{dirflag},~{fpsr},~{flags}"(i32 range(i32 -1, 1) %.neg.i.i.i.i21) #10, !srcloc !42
  %68 = and i32 %67, %65
  %69 = xor i32 %.neg.i.i.i.i21, -1
  %70 = tail call i32 asm "", "=r,0,~{dirflag},~{fpsr},~{flags}"(i32 range(i32 -1, 2) %69) #10, !srcloc !42
  %71 = and i32 %70, %66
  %72 = or i32 %71, %68
  %73 = getelementptr inbounds nuw i8, ptr %.01640, i64 20
  store i32 %72, ptr %62, align 4, !tbaa !21
  %74 = lshr i32 %.0.insert.ext, 15
  %75 = and i32 %74, 7
  %76 = sub nuw nsw i32 8380419, %75
  %77 = sub nsw i32 2, %75
  %.neg.i.i.i.i22 = ashr i32 %77, 31
  %78 = tail call i32 asm "", "=r,0,~{dirflag},~{fpsr},~{flags}"(i32 range(i32 -1, 1) %.neg.i.i.i.i22) #10, !srcloc !42
  %79 = and i32 %78, %76
  %80 = xor i32 %.neg.i.i.i.i22, -1
  %81 = tail call i32 asm "", "=r,0,~{dirflag},~{fpsr},~{flags}"(i32 range(i32 -1, 2) %80) #10, !srcloc !42
  %82 = and i32 %81, %77
  %83 = or i32 %82, %79
  %84 = getelementptr inbounds nuw i8, ptr %.01640, i64 24
  store i32 %83, ptr %73, align 4, !tbaa !21
  %85 = lshr i32 %.0.insert.ext, 18
  %86 = and i32 %85, 7
  %87 = sub nuw nsw i32 8380419, %86
  %88 = sub nsw i32 2, %86
  %.neg.i.i.i.i23 = ashr i32 %88, 31
  %89 = tail call i32 asm "", "=r,0,~{dirflag},~{fpsr},~{flags}"(i32 range(i32 -1, 1) %.neg.i.i.i.i23) #10, !srcloc !42
  %90 = and i32 %89, %87
  %91 = xor i32 %.neg.i.i.i.i23, -1
  %92 = tail call i32 asm "", "=r,0,~{dirflag},~{fpsr},~{flags}"(i32 range(i32 -1, 2) %91) #10, !srcloc !42
  %93 = and i32 %92, %88
  %94 = or i32 %93, %90
  %95 = getelementptr inbounds nuw i8, ptr %.01640, i64 28
  store i32 %94, ptr %84, align 4, !tbaa !21
  %96 = lshr i32 %.0.insert.ext, 21
  %97 = sub nuw nsw i32 8380419, %96
  %98 = sub nsw i32 2, %96
  %.neg.i.i.i.i24 = ashr i32 %98, 31
  %99 = tail call i32 asm "", "=r,0,~{dirflag},~{fpsr},~{flags}"(i32 range(i32 -1, 1) %.neg.i.i.i.i24) #10, !srcloc !42
  %100 = and i32 %99, %97
  %101 = xor i32 %.neg.i.i.i.i24, -1
  %102 = tail call i32 asm "", "=r,0,~{dirflag},~{fpsr},~{flags}"(i32 range(i32 -1, 2) %101) #10, !srcloc !42
  %103 = and i32 %102, %98
  %104 = or i32 %103, %100
  %105 = getelementptr inbounds nuw i8, ptr %.01640, i64 32
  store i32 %104, ptr %95, align 4, !tbaa !21
  %106 = add nuw nsw i32 %.041, 1
  %exitcond.not = icmp eq i32 %106, 32
  br i1 %exitcond.not, label %PACKET_get_bytes.exit.thread, label %4, !llvm.loop !57

PACKET_get_bytes.exit.thread:                     ; preds = %4, %19, %7
  %.015 = phi i32 [ 0, %7 ], [ 1, %19 ], [ 0, %4 ]
  ret i32 %.015
}